; Function Attrs: nounwind sspstrong uwtable
define internal fastcc i64 @match_ary_aref(i64 noundef %0, i64 noundef %1, i64 noundef %2) unnamed_addr #2 {
  %4 = alloca i64, align 8
  %5 = alloca i64, align 8
  call void @llvm.lifetime.start.p0(i64 8, ptr nonnull %4) #29
  call void @llvm.lifetime.start.p0(i64 8, ptr nonnull %5) #29
  %6 = inttoptr i64 %0 to ptr
  %7 = getelementptr i8, ptr %6, i64 36
  %8 = load i32, ptr %7, align 4, !tbaa !40
  %9 = sext i32 %8 to i64
  %10 = icmp ne i64 %2, 4
  %11 = zext i1 %10 to i32
  %12 = call i64 @rb_range_beg_len(i64 noundef %1, ptr noundef nonnull %4, ptr noundef nonnull %5, i64 noundef %9, i32 noundef %11) #29
  switch i64 %12, label %84 [
    i64 0, label %13
    i64 4, label %rb_reg_nth_match.exit
  ]

13:                                               ; preds = %3
  %14 = and i64 %1, 1
  %.not.i16 = icmp eq i64 %14, 0
  br i1 %10, label %49, label %15

15:                                               ; preds = %13
  br i1 %.not.i16, label %18, label %16

16:                                               ; preds = %15
  %17 = call i64 @rb_fix2int(i64 noundef %1) #29
  br label %rb_num2int_inline.exit

18:                                               ; preds = %15
  %19 = call i64 @rb_num2int(i64 noundef %1) #29
  br label %rb_num2int_inline.exit

rb_num2int_inline.exit:                           ; preds = %16, %18
  %.0.i = phi i64 [ %17, %16 ], [ %19, %18 ]
  %20 = trunc i64 %.0.i to i32
  %21 = icmp eq i64 %0, 4
  br i1 %21, label %rb_reg_nth_match.exit, label %22

22:                                               ; preds = %rb_num2int_inline.exit
  %23 = getelementptr inbounds nuw i8, ptr %6, i64 24
  %24 = load i64, ptr %23, align 8, !tbaa !31
  %.not.i.i = icmp eq i64 %24, 0
  br i1 %.not.i.i, label %25, label %match_check.exit.i

25:                                               ; preds = %22
  %26 = load i64, ptr @rb_eTypeError, align 8, !tbaa !18
  call void (i64, ptr, ...) @rb_raise(i64 noundef %26, ptr noundef nonnull @.str.76) #30
  unreachable

match_check.exit.i:                               ; preds = %22
  %27 = load i32, ptr %7, align 4, !tbaa !40
  %.not.i14 = icmp sgt i32 %27, %20
  br i1 %.not.i14, label %28, label %rb_reg_nth_match.exit

28:                                               ; preds = %match_check.exit.i
  %29 = icmp slt i32 %20, 0
  br i1 %29, label %30, label %33

30:                                               ; preds = %28
  %31 = add i32 %27, %20
  %32 = icmp slt i32 %31, 1
  br i1 %32, label %rb_reg_nth_match.exit, label %33

33:                                               ; preds = %30, %28
  %.020.i = phi i32 [ %31, %30 ], [ %20, %28 ]
  %34 = getelementptr i8, ptr %6, i64 40
  %35 = load ptr, ptr %34, align 8, !tbaa !92
  %36 = zext nneg i32 %.020.i to i64
  %37 = getelementptr i64, ptr %35, i64 %36
  %38 = load i64, ptr %37, align 8, !tbaa !18
  %39 = icmp eq i64 %38, -1
  br i1 %39, label %rb_reg_nth_match.exit, label %40

40:                                               ; preds = %33
  %41 = getelementptr i8, ptr %6, i64 48
  %42 = load ptr, ptr %41, align 8, !tbaa !93
  %43 = getelementptr i64, ptr %42, i64 %36
  %44 = load i64, ptr %43, align 8, !tbaa !18
  %45 = sub i64 %44, %38
  %46 = getelementptr inbounds nuw i8, ptr %6, i64 16
  %47 = load i64, ptr %46, align 8, !tbaa !94
  %48 = call i64 @rb_str_subseq(i64 noundef %47, i64 noundef %38, i64 noundef %45) #29
  br label %rb_reg_nth_match.exit

49:                                               ; preds = %13
  br i1 %.not.i16, label %52, label %50

50:                                               ; preds = %49
  %51 = call i64 @rb_fix2int(i64 noundef %1) #29
  br label %rb_num2int_inline.exit18

52:                                               ; preds = %49
  %53 = call i64 @rb_num2int(i64 noundef %1) #29
  br label %rb_num2int_inline.exit18

rb_num2int_inline.exit18:                         ; preds = %50, %52
  %.0.i17 = phi i64 [ %51, %50 ], [ %53, %52 ]
  %54 = trunc i64 %.0.i17 to i32
  %55 = icmp eq i64 %0, 4
  br i1 %55, label %rb_reg_nth_match.exit24, label %56

56:                                               ; preds = %rb_num2int_inline.exit18
  %57 = getelementptr inbounds nuw i8, ptr %6, i64 24
  %58 = load i64, ptr %57, align 8, !tbaa !31
  %.not.i.i19 = icmp eq i64 %58, 0
  br i1 %.not.i.i19, label %59, label %match_check.exit.i20

59:                                               ; preds = %56
  %60 = load i64, ptr @rb_eTypeError, align 8, !tbaa !18
  call void (i64, ptr, ...) @rb_raise(i64 noundef %60, ptr noundef nonnull @.str.76) #30
  unreachable

match_check.exit.i20:                             ; preds = %56
  %61 = load i32, ptr %7, align 4, !tbaa !40
  %.not.i21 = icmp sgt i32 %61, %54
  br i1 %.not.i21, label %62, label %rb_reg_nth_match.exit24

62:                                               ; preds = %match_check.exit.i20
  %63 = icmp slt i32 %54, 0
  br i1 %63, label %64, label %67

64:                                               ; preds = %62
  %65 = add i32 %61, %54
  %66 = icmp slt i32 %65, 1
  br i1 %66, label %rb_reg_nth_match.exit24, label %67

67:                                               ; preds = %64, %62
  %.020.i23 = phi i32 [ %65, %64 ], [ %54, %62 ]
  %68 = getelementptr i8, ptr %6, i64 40
  %69 = load ptr, ptr %68, align 8, !tbaa !92
  %70 = zext nneg i32 %.020.i23 to i64
  %71 = getelementptr i64, ptr %69, i64 %70
  %72 = load i64, ptr %71, align 8, !tbaa !18
  %73 = icmp eq i64 %72, -1
  br i1 %73, label %rb_reg_nth_match.exit24, label %74

74:                                               ; preds = %67
  %75 = getelementptr i8, ptr %6, i64 48
  %76 = load ptr, ptr %75, align 8, !tbaa !93
  %77 = getelementptr i64, ptr %76, i64 %70
  %78 = load i64, ptr %77, align 8, !tbaa !18
  %79 = sub i64 %78, %72
  %80 = getelementptr inbounds nuw i8, ptr %6, i64 16
  %81 = load i64, ptr %80, align 8, !tbaa !94
  %82 = call i64 @rb_str_subseq(i64 noundef %81, i64 noundef %72, i64 noundef %79) #29
  br label %rb_reg_nth_match.exit24

rb_reg_nth_match.exit24:                          ; preds = %rb_num2int_inline.exit18, %match_check.exit.i20, %64, %67, %74
  %.0.i22 = phi i64 [ %82, %74 ], [ 4, %rb_num2int_inline.exit18 ], [ 4, %match_check.exit.i20 ], [ 4, %64 ], [ 4, %67 ]
  %83 = call i64 @rb_ary_push(i64 noundef %2, i64 noundef %.0.i22) #29
  br label %rb_reg_nth_match.exit

84:                                               ; preds = %3
  %85 = load i64, ptr %4, align 8, !tbaa !18
  %86 = load i64, ptr %5, align 8, !tbaa !18
  %87 = call fastcc i64 @match_ary_subseq(i64 noundef %0, i64 noundef %85, i64 noundef %86, i64 noundef %2)
  br label %rb_reg_nth_match.exit

rb_reg_nth_match.exit:                            ; preds = %40, %33, %30, %match_check.exit.i, %rb_num2int_inline.exit, %3, %84, %rb_reg_nth_match.exit24
  %.0 = phi i64 [ %87, %84 ], [ %2, %rb_reg_nth_match.exit24 ], [ %12, %3 ], [ %48, %40 ], [ 4, %rb_num2int_inline.exit ], [ 4, %match_check.exit.i ], [ 4, %30 ], [ 4, %33 ]
  call void @llvm.lifetime.end.p0(i64 8, ptr nonnull %5) #29
  call void @llvm.lifetime.end.p0(i64 8, ptr nonnull %4) #29
  ret i64 %.0
}